target datalayout = "e-m:e-p270:32:32-p271:32:32-p272:64:64-i64:64-i128:128-f80:128-n8:16:32:64-S128"
target triple = "x86_64-pc-linux-gnu"

%class.reslimit = type { %"struct.std::atomic", i8, i64, i64, %class.svector, %class.ptr_vector }
%"struct.std::atomic" = type { %"struct.std::__atomic_base" }
%"struct.std::__atomic_base" = type { i32 }
%class.svector = type { %class.vector }
%class.vector = type { ptr }
%class.ptr_vector = type { %class.vector.0 }
%class.vector.0 = type { ptr }

; Function Attrs: noinline noreturn nounwind uwtable
define linkonce_odr hidden void @__clang_call_terminate(ptr noundef %0) #11 comdat {
  %2 = call ptr @__cxa_begin_catch(ptr %0) #3
  call void @_ZSt9terminatev() #18
  unreachable
}

; Function Attrs: mustprogress nounwind uwtable
define linkonce_odr noundef i32 @_ZStanSt12memory_orderSt23__memory_order_modifier(i32 noundef %0, i32 noundef %1) #6 comdat {
  %3 = alloca i32, align 4
  %4 = alloca i32, align 4
  store i32 %0, ptr %3, align 4, !tbaa !64
  store i32 %1, ptr %4, align 4, !tbaa !66
  %5 = load i32, ptr %3, align 4, !tbaa !64
  %6 = load i32, ptr %4, align 4, !tbaa !66
  %7 = and i32 %5, %6
  ret i32 %7
}

; Function Attrs: alwaysinline mustprogress nounwind uwtable
define linkonce_odr hidden noundef i32 @_ZNKSt13__atomic_baseIjE4loadESt12memory_order(ptr noundef nonnull align 4 dereferenceable(4) %0, i32 noundef %1) #10 comdat align 2 personality ptr @__gxx_personality_v0 {
  %3 = alloca ptr, align 8
  %4 = alloca i32, align 4
  %5 = alloca i32, align 4
  %6 = alloca i32, align 4
  store ptr %0, ptr %3, align 8, !tbaa !40
  store i32 %1, ptr %4, align 4, !tbaa !64
  %7 = load ptr, ptr %3, align 8
  call void @llvm.lifetime.start.p0(i64 4, ptr %5) #3
  %8 = load i32, ptr %4, align 4, !tbaa !64
  %9 = invoke noundef i32 @_ZStanSt12memory_orderSt23__memory_order_modifier(i32 noundef %8, i32 noundef 65535)
          to label %10 unwind label %27

10:                                               ; preds = %2
  store i32 %9, ptr %5, align 4, !tbaa !64
  br label %11

11:                                               ; preds = %10
  br label %12

12:                                               ; preds = %11
  br label %13

13:                                               ; preds = %12
  br label %14

14:                                               ; preds = %13
  br label %15

15:                                               ; preds = %14
  br label %16

16:                                               ; preds = %15
  %17 = getelementptr inbounds nuw %"struct.std::__atomic_base", ptr %7, i32 0, i32 0
  %18 = load i32, ptr %4, align 4, !tbaa !64
  switch i32 %18, label %19 [
    i32 1, label %21
    i32 2, label %21
    i32 5, label %23
  ]

19:                                               ; preds = %16
  %20 = load atomic i32, ptr %17 monotonic, align 4
  store i32 %20, ptr %6, align 4
  br label %25

21:                                               ; preds = %16, %16
  %22 = load atomic i32, ptr %17 acquire, align 4
  store i32 %22, ptr %6, align 4
  br label %25

23:                                               ; preds = %16
  %24 = load atomic i32, ptr %17 seq_cst, align 4
  store i32 %24, ptr %6, align 4
  br label %25

25:                                               ; preds = %23, %21, %19
  %26 = load i32, ptr %6, align 4, !tbaa !28
  call void @llvm.lifetime.end.p0(i64 4, ptr %5) #3
  ret i32 %26

27:                                               ; preds = %2
  %28 = landingpad { ptr, i32 }
          catch ptr null
  %29 = extractvalue { ptr, i32 } %28, 0
  call void @__clang_call_terminate(ptr %29) #18
  unreachable
}

; Function Attrs: inlinehint mustprogress nounwind uwtable
define linkonce_odr hidden noundef zeroext i1 @_ZN8reslimit10is_timeoutEv(ptr noundef nonnull align 8 dereferenceable(40) %0) #9 comdat align 2 {
  %2 = alloca ptr, align 8
  store ptr %0, ptr %2, align 8, !tbaa !8
  ret i1 false
}

; Function Attrs: mustprogress nounwind uwtable
define linkonce_odr hidden noundef i32 @_ZNKSt13__atomic_baseIjEcvjEv(ptr noundef nonnull align 4 dereferenceable(4) %0) #6 comdat align 2 {
  %2 = alloca ptr, align 8
  store ptr %0, ptr %2, align 8, !tbaa !40
  %3 = load ptr, ptr %2, align 8
  %4 = call noundef i32 @_ZNKSt13__atomic_baseIjE4loadESt12memory_order(ptr noundef nonnull align 4 dereferenceable(4) %3, i32 noundef 5) #3
  ret i32 %4
}

; Function Attrs: inlinehint mustprogress uwtable
define linkonce_odr hidden noundef zeroext i1 @_ZN8reslimit12not_canceledEv(ptr noundef nonnull align 8 dereferenceable(40) %0) #7 comdat align 2 {
  %2 = alloca ptr, align 8
  store ptr %0, ptr %2, align 8, !tbaa !8
  %3 = load ptr, ptr %2, align 8
  %4 = getelementptr inbounds nuw %class.reslimit, ptr %3, i32 0, i32 1
  %5 = load i8, ptr %4, align 4, !tbaa !10, !range !33, !noundef !34
  %6 = trunc i8 %5 to i1
  br i1 %6, label %22, label %7

7:                                                ; preds = %1
  %8 = getelementptr inbounds nuw %class.reslimit, ptr %3, i32 0, i32 0
  %9 = call noundef i32 @_ZNKSt13__atomic_baseIjEcvjEv(ptr noundef nonnull align 4 dereferenceable(4) %8) #3
  %10 = icmp eq i32 %9, 0
  br i1 %10, label %11, label %20

11:                                               ; preds = %7
  %12 = getelementptr inbounds nuw %class.reslimit, ptr %3, i32 0, i32 2
  %13 = load i64, ptr %12, align 8, !tbaa !24
  %14 = getelementptr inbounds nuw %class.reslimit, ptr %3, i32 0, i32 3
  %15 = load i64, ptr %14, align 8, !tbaa !25
  %16 = icmp ule i64 %13, %15
  br i1 %16, label %17, label %20

17:                                               ; preds = %11
  %18 = call noundef zeroext i1 @_ZN8reslimit10is_timeoutEv(ptr noundef nonnull align 8 dereferenceable(40) %3)
  %19 = xor i1 %18, true
  br label %20

20:                                               ; preds = %17, %11, %7
  %21 = phi i1 [ false, %11 ], [ false, %7 ], [ %19, %17 ]
  br label %22

22:                                               ; preds = %20, %1
  %23 = phi i1 [ true, %1 ], [ %21, %20 ]
  ret i1 %23
}

; Function Attrs: mustprogress uwtable
define hidden noundef zeroext i1 @_ZN8reslimit3incEv(ptr noundef nonnull align 8 dereferenceable(40) %0) #4 align 2 {
  %2 = alloca ptr, align 8
  store ptr %0, ptr %2, align 8, !tbaa !8
  %3 = load ptr, ptr %2, align 8
  %4 = getelementptr inbounds nuw %class.reslimit, ptr %3, i32 0, i32 2
  %5 = load i64, ptr %4, align 8, !tbaa !24
  %6 = add i64 %5, 1
  store i64 %6, ptr %4, align 8, !tbaa !24
  %7 = call noundef zeroext i1 @_ZN8reslimit12not_canceledEv(ptr noundef nonnull align 8 dereferenceable(40) %3)
  ret i1 %7
}