; Function Attrs: mustprogress nofree norecurse nounwind willreturn memory(argmem: readwrite) uwtable
define hidden noundef zeroext i1 @_ZN8reslimit3incEv(ptr noundef nonnull align 8 captures(none) dereferenceable(40) %0) local_unnamed_addr #7 align 2 personality ptr @__gxx_personality_v0 {
  %2 = getelementptr inbounds nuw i8, ptr %0, i64 8
  %3 = load i64, ptr %2, align 8, !tbaa !23
  %4 = add i64 %3, 1
  store i64 %4, ptr %2, align 8, !tbaa !23
  %5 = getelementptr inbounds nuw i8, ptr %0, i64 4
  %6 = load i8, ptr %5, align 4, !tbaa !11, !range !25, !noundef !26
  %7 = trunc nuw i8 %6 to i1
  br i1 %7, label %_ZN8reslimit12not_canceledEv.exit, label %8

8:                                                ; preds = %1
  %9 = load atomic i32, ptr %0 seq_cst, align 8
  %10 = icmp eq i32 %9, 0
  br i1 %10, label %11, label %_ZN8reslimit12not_canceledEv.exit

11:                                               ; preds = %8
  %12 = load i64, ptr %2, align 8, !tbaa !23
  %13 = getelementptr inbounds nuw i8, ptr %0, i64 16
  %14 = load i64, ptr %13, align 8, !tbaa !24
  %.not.i = icmp ule i64 %12, %14
  br label %_ZN8reslimit12not_canceledEv.exit

_ZN8reslimit12not_canceledEv.exit:                ; preds = %1, %8, %11
  %15 = phi i1 [ true, %1 ], [ false, %8 ], [ %.not.i, %11 ]
  ret i1 %15
}